Certificate:
    Data:
        Version: 3 (0x2)
        Serial Number: 1 (0x1)
        Signature Algorithm: sha256WithRSAEncryption
        Issuer: CN=Michiel Roos Root Certificate Authority, ST=NB, C=NL/emailAddress=michiel@michielroos.com, O=Michiel Roos, OU=Development
        Validity
            Not Before: Aug  2 13:11:45 2019 GMT
            Not After : Jul 31 13:11:45 2024 GMT
        Subject: CN=localhost, ST=NB, C=NL/emailAddress=michiel@michielroos.com, O=Michiel Roos, OU=Development
        Subject Public Key Info:
            Public Key Algorithm: rsaEncryption
                RSA Public-Key: (2048 bit)
                Modulus:
                    00:da:99:6d:f5:8a:a3:9d:16:9f:c2:7a:fb:c8:f9:
                    e8:21:40:80:1e:fc:04:05:90:e6:2b:27:57:34:31:
                    96:c1:46:e4:44:c6:80:34:84:42:52:83:4d:c7:6a:
                    46:ec:c3:86:d0:57:2d:c1:41:d7:36:37:9d:d3:3f:
                    0c:f4:a8:f3:28:2f:55:14:0e:c9:66:34:e5:e6:9e:
                    4a:d8:d1:33:5a:33:6f:f4:4e:f5:5f:ef:61:52:03:
                    d7:bd:b3:47:64:ae:4b:70:2a:77:75:61:f9:33:78:
                    56:78:14:84:89:81:00:60:98:90:53:49:3e:84:40:
                    76:8d:c6:45:9f:58:d8:7f:ff:c8:0a:a6:c5:0b:0b:
                    01:e7:ab:e9:4a:41:1a:ff:56:9d:3f:2a:79:ef:db:
                    ab:0b:83:36:76:9b:32:9e:2f:56:47:e7:e5:d9:a0:
                    7e:14:bd:27:c9:ba:5c:99:82:f9:9b:b7:20:a7:b4:
                    94:d0:22:64:db:cf:c5:80:6a:00:f1:76:22:2c:54:
                    ec:58:9b:6a:57:01:de:93:e7:2b:ca:11:02:10:d5:
                    2b:26:74:71:d1:ba:3d:37:e7:50:99:0e:9f:b8:ba:
                    d0:93:61:1b:dd:2a:90:3d:15:1b:5b:f9:04:ac:63:
                    4b:9b:72:6e:d9:b8:fb:4d:8b:e9:b7:99:cf:88:d7:
                    3e:99
                Exponent: 65537 (0x10001)
        X509v3 extensions:
            X509v3 Basic Constraints: 
                CA:FALSE
            X509v3 Key Usage: 
                Digital Signature, Non Repudiation, Key Encipherment
            X509v3 Subject Alternative Name: 
                DNS:dev.local, DNS:*.dev.local, DNS:*.xdebug.local, DNS:*.xdbg.local, DNS:*.blackfire.local, DNS:*.black.local, DNS:*.fire.local, DNS:*.debug.local, DNS:*.mail.local, DNS:*.mailhog.local
    Signature Algorithm: sha256WithRSAEncryption
         47:df:5d:79:2d:1a:0c:e7:47:c2:10:34:6e:a6:c0:bb:34:f0:
         5c:b8:69:39:f8:8c:07:dd:aa:de:0d:df:8f:ac:94:5f:14:57:
         d9:8a:ad:ef:e2:0f:c4:e3:d0:86:4d:71:fe:79:98:fd:19:20:
         89:f8:f6:88:6a:e6:66:6d:71:2a:77:37:16:74:54:14:5f:bf:
         fe:8c:7f:01:23:e6:e2:13:bd:a7:94:8d:5d:37:4c:2d:7e:e4:
         53:e9:56:6f:67:7c:73:de:be:49:f0:19:e7:e2:01:51:62:60:
         c1:0d:01:86:17:fb:b9:1e:c7:be:88:54:9a:04:5b:46:6b:30:
         88:5f:9b:27:f1:8a:50:9e:5b:a6:5d:19:9f:29:b6:2a:71:b6:
         ad:f0:b3:28:71:6f:3e:0e:4e:d4:27:94:c9:78:f4:eb:80:4f:
         3c:06:ba:ed:34:d4:2c:73:5b:93:3b:4b:84:f8:9f:8f:f7:78:
         08:68:36:38:3e:cc:00:7d:ff:90:01:22:ae:5e:89:0a:95:05:
         7f:a6:6b:ca:73:e5:45:79:ec:a6:2e:65:54:77:a0:f8:d7:2b:
         17:f8:02:af:32:87:2f:5a:68:f0:e0:93:cb:fd:e9:2c:d2:d6:
         47:14:af:59:5c:41:7a:f9:f6:35:99:c7:e7:b3:a9:0e:4a:38:
         68:14:e3:e3
-----BEGIN CERTIFICATE-----
MIIEXzCCA0egAwIBAgIBATANBgkqhkiG9w0BAQsFADCBoTEwMC4GA1UEAwwnTWlj
aGllbCBSb29zIFJvb3QgQ2VydGlmaWNhdGUgQXV0aG9yaXR5MQswCQYDVQQIDAJO
QjELMAkGA1UEBhMCTkwxJjAkBgkqhkiG9w0BCQEWF21pY2hpZWxAbWljaGllbHJv
b3MuY29tMRUwEwYDVQQKDAxNaWNoaWVsIFJvb3MxFDASBgNVBAsMC0RldmVsb3Bt
ZW50MB4XDTE5MDgwMjEzMTE0NVoXDTI0MDczMTEzMTE0NVowgYMxEjAQBgNVBAMM
CWxvY2FsaG9zdDELMAkGA1UECAwCTkIxCzAJBgNVBAYTAk5MMSYwJAYJKoZIhvcN
AQkBFhdtaWNoaWVsQG1pY2hpZWxyb29zLmNvbTEVMBMGA1UECgwMTWljaGllbCBS
b29zMRQwEgYDVQQLDAtEZXZlbG9wbWVudDCCASIwDQYJKoZIhvcNAQEBBQADggEP
ADCCAQoCggEBANqZbfWKo50Wn8J6+8j56CFAgB78BAWQ5isnVzQxlsFG5ETGgDSE
QlKDTcdqRuzDhtBXLcFB1zY3ndM/DPSo8ygvVRQOyWY05eaeStjRM1ozb/RO9V/v
YVID172zR2SuS3Aqd3Vh+TN4VngUhImBAGCYkFNJPoRAdo3GRZ9Y2H//yAqmxQsL
Aeer6UpBGv9WnT8qee/bqwuDNnabMp4vVkfn5dmgfhS9J8m6XJmC+Zu3IKe0lNAi
ZNvPxYBqAPF2IixU7FibalcB3pPnK8oRAhDVKyZ0cdG6PTfnUJkOn7i60JNhG90q
kD0VG1v5BKxjS5tybtm4+02L6beZz4jXPpkCAwEAAaOBvTCBujAJBgNVHRMEAjAA
MAsGA1UdDwQEAwIF4DCBnwYDVR0RBIGXMIGUgglkZXYubG9jYWyCCyouZGV2Lmxv
Y2Fsgg4qLnhkZWJ1Zy5sb2NhbIIMKi54ZGJnLmxvY2FsghEqLmJsYWNrZmlyZS5s
b2NhbIINKi5ibGFjay5sb2NhbIIMKi5maXJlLmxvY2Fsgg0qLmRlYnVnLmxvY2Fs
ggwqLm1haWwubG9jYWyCDyoubWFpbGhvZy5sb2NhbDANBgkqhkiG9w0BAQsFAAOC
AQEAR99deS0aDOdHwhA0bqbAuzTwXLhpOfiMB92q3g3fj6yUXxRX2Yqt7+IPxOPQ
hk1x/nmY/Rkgifj2iGrmZm1xKnc3FnRUFF+//ox/ASPm4hO9p5SNXTdMLX7kU+lW
b2d8c96+SfAZ5+IBUWJgwQ0Bhhf7uR7HvohUmgRbRmswiF+bJ/GKUJ5bpl0Znym2
KnG2rfCzKHFvPg5O1CeUyXj064BPPAa67TTULHNbkztLhPifj/d4CGg2OD7MAH3/
kAEirl6JCpUFf6ZrynPlRXnspi5lVHeg+NcrF/gCrzKHL1po8OCTy/3pLNLWRxSv
WVxBevn2NZnH57OpDko4aBTj4w==
-----END CERTIFICATE-----
